target datalayout = "e-m:e-p270:32:32-p271:32:32-p272:64:64-i64:64-i128:128-f80:128-n8:16:32:64-S128"
target triple = "x86_64-pc-linux-gnu"

%struct.Abc_Ntk_t_ = type { i32, i32, ptr, ptr, ptr, ptr, ptr, ptr, ptr, ptr, ptr, ptr, ptr, [11 x i32], i32, i32, i32, i32, ptr, i32, ptr, ptr, i32, i32, i32, double, i32, %struct.Vec_Int_t_, ptr, ptr, ptr, ptr, ptr, float, i32, ptr, ptr, ptr, ptr, ptr, ptr, ptr, ptr, ptr, ptr, ptr, ptr, ptr, ptr, ptr, ptr, ptr, ptr, ptr, ptr, ptr, ptr }
%struct.Vec_Int_t_ = type { i32, i32, ptr }
%struct.Abc_Obj_t_ = type { ptr, ptr, i32, i32, %struct.Vec_Int_t_, %struct.Vec_Int_t_, %union.anon, %union.anon.0 }
%union.anon = type { ptr }
%union.anon.0 = type { ptr }
%struct.Vec_Ptr_t_ = type { i32, i32, ptr }

; Function Attrs: inlinehint nounwind uwtable
define internal ptr @Vec_PtrEntry(ptr noundef %0, i32 noundef %1) #3 {
  %3 = alloca ptr, align 8
  %4 = alloca i32, align 4
  store ptr %0, ptr %3, align 8, !tbaa !43
  store i32 %1, ptr %4, align 4, !tbaa !8
  %5 = load ptr, ptr %3, align 8, !tbaa !43
  %6 = getelementptr inbounds nuw %struct.Vec_Ptr_t_, ptr %5, i32 0, i32 2
  %7 = load ptr, ptr %6, align 8, !tbaa !47
  %8 = load i32, ptr %4, align 4, !tbaa !8
  %9 = sext i32 %8 to i64
  %10 = getelementptr inbounds ptr, ptr %7, i64 %9
  %11 = load ptr, ptr %10, align 8, !tbaa !48
  ret ptr %11
}

; Function Attrs: inlinehint nounwind uwtable
define internal i32 @Vec_PtrSize(ptr noundef %0) #3 {
  %2 = alloca ptr, align 8
  store ptr %0, ptr %2, align 8, !tbaa !43
  %3 = load ptr, ptr %2, align 8, !tbaa !43
  %4 = getelementptr inbounds nuw %struct.Vec_Ptr_t_, ptr %3, i32 0, i32 1
  %5 = load i32, ptr %4, align 4, !tbaa !45
  ret i32 %5
}

; Function Attrs: inlinehint nounwind uwtable
define internal ptr @Abc_ObjFanin0(ptr noundef %0) #3 {
  %2 = alloca ptr, align 8
  store ptr %0, ptr %2, align 8, !tbaa !28
  %3 = load ptr, ptr %2, align 8, !tbaa !28
  %4 = getelementptr inbounds nuw %struct.Abc_Obj_t_, ptr %3, i32 0, i32 0
  %5 = load ptr, ptr %4, align 8, !tbaa !52
  %6 = getelementptr inbounds nuw %struct.Abc_Ntk_t_, ptr %5, i32 0, i32 5
  %7 = load ptr, ptr %6, align 8, !tbaa !27
  %8 = getelementptr inbounds nuw %struct.Vec_Ptr_t_, ptr %7, i32 0, i32 2
  %9 = load ptr, ptr %8, align 8, !tbaa !47
  %10 = load ptr, ptr %2, align 8, !tbaa !28
  %11 = getelementptr inbounds nuw %struct.Abc_Obj_t_, ptr %10, i32 0, i32 4
  %12 = getelementptr inbounds nuw %struct.Vec_Int_t_, ptr %11, i32 0, i32 2
  %13 = load ptr, ptr %12, align 8, !tbaa !54
  %14 = getelementptr inbounds i32, ptr %13, i64 0
  %15 = load i32, ptr %14, align 4, !tbaa !8
  %16 = sext i32 %15 to i64
  %17 = getelementptr inbounds ptr, ptr %9, i64 %16
  %18 = load ptr, ptr %17, align 8, !tbaa !48
  ret ptr %18
}

; Function Attrs: inlinehint nounwind uwtable
define internal ptr @Abc_NtkCo(ptr noundef %0, i32 noundef %1) #3 {
  %3 = alloca ptr, align 8
  %4 = alloca i32, align 4
  store ptr %0, ptr %3, align 8, !tbaa !3
  store i32 %1, ptr %4, align 4, !tbaa !8
  %5 = load ptr, ptr %3, align 8, !tbaa !3
  %6 = getelementptr inbounds nuw %struct.Abc_Ntk_t_, ptr %5, i32 0, i32 9
  %7 = load ptr, ptr %6, align 8, !tbaa !61
  %8 = load i32, ptr %4, align 4, !tbaa !8
  %9 = call ptr @Vec_PtrEntry(ptr noundef %7, i32 noundef %8)
  ret ptr %9
}

; Function Attrs: inlinehint nounwind uwtable
define internal i32 @Abc_NtkCoNum(ptr noundef %0) #3 {
  %2 = alloca ptr, align 8
  store ptr %0, ptr %2, align 8, !tbaa !3
  %3 = load ptr, ptr %2, align 8, !tbaa !3
  %4 = getelementptr inbounds nuw %struct.Abc_Ntk_t_, ptr %3, i32 0, i32 9
  %5 = load ptr, ptr %4, align 8, !tbaa !61
  %6 = call i32 @Vec_PtrSize(ptr noundef %5)
  ret i32 %6
}

; Function Attrs: nounwind uwtable
define void @Abc_NtkBalanceAttach(ptr noundef %0) #0 {
  %2 = alloca ptr, align 8
  %3 = alloca ptr, align 8
  %4 = alloca i32, align 4
  store ptr %0, ptr %2, align 8, !tbaa !3
  call void @llvm.lifetime.start.p0(i64 8, ptr %3) #7
  call void @llvm.lifetime.start.p0(i64 4, ptr %4) #7
  %5 = load ptr, ptr %2, align 8, !tbaa !3
  call void @Abc_NtkCleanCopy(ptr noundef %5)
  store i32 0, ptr %4, align 4, !tbaa !8
  br label %6

6:                                                ; preds = %30, %1
  %7 = load i32, ptr %4, align 4, !tbaa !8
  %8 = load ptr, ptr %2, align 8, !tbaa !3
  %9 = call i32 @Abc_NtkCoNum(ptr noundef %8)
  %10 = icmp slt i32 %7, %9
  br i1 %10, label %11, label %15

11:                                               ; preds = %6
  %12 = load ptr, ptr %2, align 8, !tbaa !3
  %13 = load i32, ptr %4, align 4, !tbaa !8
  %14 = call ptr @Abc_NtkCo(ptr noundef %12, i32 noundef %13)
  store ptr %14, ptr %3, align 8, !tbaa !28
  br label %15

15:                                               ; preds = %11, %6
  %16 = phi i1 [ false, %6 ], [ true, %11 ]
  br i1 %16, label %17, label %33

17:                                               ; preds = %15
  %18 = load ptr, ptr %3, align 8, !tbaa !28
  %19 = call ptr @Abc_ObjFanin0(ptr noundef %18)
  store ptr %19, ptr %3, align 8, !tbaa !28
  %20 = load ptr, ptr %3, align 8, !tbaa !28
  %21 = getelementptr inbounds nuw %struct.Abc_Obj_t_, ptr %20, i32 0, i32 7
  %22 = load ptr, ptr %21, align 8, !tbaa !32
  %23 = icmp ne ptr %22, null
  br i1 %23, label %24, label %25

24:                                               ; preds = %17
  br label %30

25:                                               ; preds = %17
  %26 = load ptr, ptr %3, align 8, !tbaa !28
  %27 = call ptr @Abc_NodeFindCone_rec(ptr noundef %26)
  %28 = load ptr, ptr %3, align 8, !tbaa !28
  %29 = getelementptr inbounds nuw %struct.Abc_Obj_t_, ptr %28, i32 0, i32 7
  store ptr %27, ptr %29, align 8, !tbaa !32
  br label %30

30:                                               ; preds = %25, %24
  %31 = load i32, ptr %4, align 4, !tbaa !8
  %32 = add nsw i32 %31, 1
  store i32 %32, ptr %4, align 4, !tbaa !8
  br label %6, !llvm.loop !60

33:                                               ; preds = %15
  call void @llvm.lifetime.end.p0(i64 4, ptr %4) #7
  call void @llvm.lifetime.end.p0(i64 8, ptr %3) #7
  ret void
}