; Function Attrs: nounwind uwtable
define void @Abc_NtkBalanceAttach(ptr noundef %0) local_unnamed_addr #0 {
  tail call void @Abc_NtkCleanCopy(ptr noundef %0) #13
  %2 = getelementptr i8, ptr %0, i64 64
  %.val12 = load ptr, ptr %2, align 8, !tbaa !43
  %3 = getelementptr i8, ptr %.val12, i64 4
  %.val.val13 = load i32, ptr %3, align 4, !tbaa !24
  %4 = icmp sgt i32 %.val.val13, 0
  br i1 %4, label %.lr.ph, label %.critedge

.lr.ph:                                           ; preds = %1, %18
  %.val17 = phi ptr [ %.val, %18 ], [ %.val12, %1 ]
  %indvars.iv = phi i64 [ %indvars.iv.next, %18 ], [ 0, %1 ]
  %5 = getelementptr i8, ptr %.val17, i64 8
  %.val9.val = load ptr, ptr %5, align 8, !tbaa !26
  %6 = getelementptr inbounds nuw ptr, ptr %.val9.val, i64 %indvars.iv
  %7 = load ptr, ptr %6, align 8, !tbaa !27
  %.val10 = load ptr, ptr %7, align 8, !tbaa !45
  %8 = getelementptr i8, ptr %7, i64 32
  %.val11 = load ptr, ptr %8, align 8, !tbaa !48
  %9 = getelementptr i8, ptr %.val10, i64 32
  %.val10.val = load ptr, ptr %9, align 8, !tbaa !3
  %.val11.val = load i32, ptr %.val11, align 4, !tbaa !30
  %10 = getelementptr i8, ptr %.val10.val, i64 8
  %.val10.val.val = load ptr, ptr %10, align 8, !tbaa !26
  %11 = sext i32 %.val11.val to i64
  %12 = getelementptr inbounds ptr, ptr %.val10.val.val, i64 %11
  %13 = load ptr, ptr %12, align 8, !tbaa !27
  %14 = getelementptr inbounds nuw i8, ptr %13, i64 64
  %15 = load ptr, ptr %14, align 8, !tbaa !34
  %.not = icmp eq ptr %15, null
  br i1 %.not, label %16, label %18

16:                                               ; preds = %.lr.ph
  %17 = tail call ptr @Abc_NodeFindCone_rec(ptr noundef nonnull %13)
  store ptr %17, ptr %14, align 8, !tbaa !34
  %.val.pre = load ptr, ptr %2, align 8, !tbaa !43
  br label %18

18:                                               ; preds = %.lr.ph, %16
  %.val = phi ptr [ %.val17, %.lr.ph ], [ %.val.pre, %16 ]
  %indvars.iv.next = add nuw nsw i64 %indvars.iv, 1
  %19 = getelementptr i8, ptr %.val, i64 4
  %.val.val = load i32, ptr %19, align 4, !tbaa !24
  %20 = sext i32 %.val.val to i64
  %21 = icmp slt i64 %indvars.iv.next, %20
  br i1 %21, label %.lr.ph, label %.critedge, !llvm.loop !64

.critedge:                                        ; preds = %18, %1
  ret void
}